; Function Attrs: mustprogress uwtable
define hidden void @_ZN11hwf_manager4sqrtE17mpf_rounding_modeRK3hwfRS1_(ptr noundef nonnull readnone align 8 captures(none) dereferenceable(736) %0, i32 noundef %1, ptr noundef nonnull readonly align 8 captures(none) dereferenceable(8) %2, ptr noundef nonnull writeonly align 8 captures(none) dereferenceable(8) initializes((0, 8)) %3) local_unnamed_addr #3 align 2 {
  switch i32 %1, label %13 [
    i32 0, label %5
    i32 2, label %7
    i32 3, label %9
    i32 4, label %11
  ]

5:                                                ; preds = %4
  %6 = tail call i32 @fesetround(i32 noundef 0) #24
  br label %_ZN11hwf_manager17set_rounding_modeE17mpf_rounding_mode.exit

7:                                                ; preds = %4
  %8 = tail call i32 @fesetround(i32 noundef 2048) #24
  br label %_ZN11hwf_manager17set_rounding_modeE17mpf_rounding_mode.exit

9:                                                ; preds = %4
  %10 = tail call i32 @fesetround(i32 noundef 1024) #24
  br label %_ZN11hwf_manager17set_rounding_modeE17mpf_rounding_mode.exit

11:                                               ; preds = %4
  %12 = tail call i32 @fesetround(i32 noundef 3072) #24
  br label %_ZN11hwf_manager17set_rounding_modeE17mpf_rounding_mode.exit

13:                                               ; preds = %4
  tail call void @_Z26notify_assertion_violationPKciS0_(ptr noundef nonnull @.str.7, i32 noundef 607, ptr noundef nonnull @.str.8)
  tail call void @_Z18invoke_exit_actionj(i32 noundef 114)
  br label %_ZN11hwf_manager17set_rounding_modeE17mpf_rounding_mode.exit

_ZN11hwf_manager17set_rounding_modeE17mpf_rounding_mode.exit: ; preds = %5, %7, %9, %11, %13
  %14 = load double, ptr %2, align 8, !tbaa !13
  %15 = tail call double @sqrt(double noundef %14) #24, !tbaa !42
  store double %15, ptr %3, align 8, !tbaa !13
  ret void
}